target datalayout = "e-m:e-p270:32:32-p271:32:32-p272:64:64-i64:64-i128:128-f80:128-n8:16:32:64-S128"
target triple = "x86_64-pc-linux-gnu"

@node_record_count = external global i32, align 4

; Function Attrs: nounwind uwtable
define dso_local void @clear_core_array(ptr noundef %0) #0 {
  %2 = alloca ptr, align 8
  %3 = alloca i32, align 4
  %4 = alloca i32, align 4
  store ptr %0, ptr %2, align 8
  call void @llvm.lifetime.start.p0(i64 4, ptr %3) #3
  %5 = load ptr, ptr %2, align 8
  %6 = icmp ne ptr %5, null
  br i1 %6, label %8, label %7

7:                                                ; preds = %1
  store i32 1, ptr %4, align 4
  br label %31

8:                                                ; preds = %1
  store i32 0, ptr %3, align 4
  br label %9

9:                                                ; preds = %27, %8
  %10 = load i32, ptr %3, align 4
  %11 = load i32, ptr @node_record_count, align 4
  %12 = icmp slt i32 %10, %11
  br i1 %12, label %13, label %30

13:                                               ; preds = %9
  %14 = load ptr, ptr %2, align 8
  %15 = load i32, ptr %3, align 4
  %16 = sext i32 %15 to i64
  %17 = getelementptr inbounds ptr, ptr %14, i64 %16
  %18 = load ptr, ptr %17, align 8
  %19 = icmp ne ptr %18, null
  br i1 %19, label %20, label %26

20:                                               ; preds = %13
  %21 = load ptr, ptr %2, align 8
  %22 = load i32, ptr %3, align 4
  %23 = sext i32 %22 to i64
  %24 = getelementptr inbounds ptr, ptr %21, i64 %23
  %25 = load ptr, ptr %24, align 8
  call void @bit_clear_all(ptr noundef %25)
  br label %26

26:                                               ; preds = %20, %13
  br label %27

27:                                               ; preds = %26
  %28 = load i32, ptr %3, align 4
  %29 = add nsw i32 %28, 1
  store i32 %29, ptr %3, align 4
  br label %9, !llvm.loop !8

30:                                               ; preds = %9
  store i32 0, ptr %4, align 4
  br label %31

31:                                               ; preds = %30, %7
  call void @llvm.lifetime.end.p0(i64 4, ptr %3) #3
  %32 = load i32, ptr %4, align 4
  switch i32 %32, label %34 [
    i32 0, label %33
    i32 1, label %33
  ]

33:                                               ; preds = %31, %31
  ret void

34:                                               ; preds = %31
  unreachable
}